
kernel.elf:     file format elf64-littleriscv


Disassembly of section .text.boot:

0000000080200000 <_start>:
    80200000:	10401073          	csrw	sie,zero
    80200004:	00001117          	auipc	sp,0x1
    80200008:	ffc10113          	addi	sp,sp,-4 # 80201000 <stacks_start>
    8020000c:	000012b7          	lui	t0,0x1
    80200010:	00510133          	add	sp,sp,t0
    80200014:	7b40006f          	j	802007c8 <kernel_main>

Disassembly of section .text:

0000000080200018 <sbi_ecall>:
    80200018:	f9010113          	addi	sp,sp,-112
    8020001c:	06813423          	sd	s0,104(sp)
    80200020:	07010413          	addi	s0,sp,112
    80200024:	fcc43023          	sd	a2,-64(s0)
    80200028:	fad43c23          	sd	a3,-72(s0)
    8020002c:	fae43823          	sd	a4,-80(s0)
    80200030:	faf43423          	sd	a5,-88(s0)
    80200034:	fb043023          	sd	a6,-96(s0)
    80200038:	f9143c23          	sd	a7,-104(s0)
    8020003c:	00050793          	mv	a5,a0
    80200040:	fcf42623          	sw	a5,-52(s0)
    80200044:	00058793          	mv	a5,a1
    80200048:	fcf42423          	sw	a5,-56(s0)
    8020004c:	fc043503          	ld	a0,-64(s0)
    80200050:	fb843583          	ld	a1,-72(s0)
    80200054:	fb043603          	ld	a2,-80(s0)
    80200058:	fa843683          	ld	a3,-88(s0)
    8020005c:	fa043703          	ld	a4,-96(s0)
    80200060:	f9843783          	ld	a5,-104(s0)
    80200064:	fc842803          	lw	a6,-56(s0)
    80200068:	fcc42883          	lw	a7,-52(s0)
    8020006c:	00000073          	ecall
    80200070:	00050793          	mv	a5,a0
    80200074:	fcf43823          	sd	a5,-48(s0)
    80200078:	00058793          	mv	a5,a1
    8020007c:	fcf43c23          	sd	a5,-40(s0)
    80200080:	fd043783          	ld	a5,-48(s0)
    80200084:	fef43023          	sd	a5,-32(s0)
    80200088:	fd843783          	ld	a5,-40(s0)
    8020008c:	fef43423          	sd	a5,-24(s0)
    80200090:	fe043703          	ld	a4,-32(s0)
    80200094:	fe843783          	ld	a5,-24(s0)
    80200098:	00070313          	mv	t1,a4
    8020009c:	00078393          	mv	t2,a5
    802000a0:	00030713          	mv	a4,t1
    802000a4:	00038793          	mv	a5,t2
    802000a8:	00070513          	mv	a0,a4
    802000ac:	00078593          	mv	a1,a5
    802000b0:	06813403          	ld	s0,104(sp)
    802000b4:	07010113          	addi	sp,sp,112
    802000b8:	00008067          	ret

00000000802000bc <sbi_set_timer>:
    802000bc:	fe010113          	addi	sp,sp,-32
    802000c0:	00113c23          	sd	ra,24(sp)
    802000c4:	00813823          	sd	s0,16(sp)
    802000c8:	02010413          	addi	s0,sp,32
    802000cc:	fea43423          	sd	a0,-24(s0)
    802000d0:	00000893          	li	a7,0
    802000d4:	00000813          	li	a6,0
    802000d8:	00000793          	li	a5,0
    802000dc:	00000713          	li	a4,0
    802000e0:	00000693          	li	a3,0
    802000e4:	fe843603          	ld	a2,-24(s0)
    802000e8:	00000593          	li	a1,0
    802000ec:	00000513          	li	a0,0
    802000f0:	f29ff0ef          	jal	80200018 <sbi_ecall>
    802000f4:	00000013          	nop
    802000f8:	01813083          	ld	ra,24(sp)
    802000fc:	01013403          	ld	s0,16(sp)
    80200100:	02010113          	addi	sp,sp,32
    80200104:	00008067          	ret

0000000080200108 <sbi_get_spec_version>:
    80200108:	fe010113          	addi	sp,sp,-32
    8020010c:	00113c23          	sd	ra,24(sp)
    80200110:	00813823          	sd	s0,16(sp)
    80200114:	02010413          	addi	s0,sp,32
    80200118:	00000893          	li	a7,0
    8020011c:	00000813          	li	a6,0
    80200120:	00000793          	li	a5,0
    80200124:	00000713          	li	a4,0
    80200128:	00000693          	li	a3,0
    8020012c:	00000613          	li	a2,0
    80200130:	00000593          	li	a1,0
    80200134:	01000513          	li	a0,16
    80200138:	ee1ff0ef          	jal	80200018 <sbi_ecall>
    8020013c:	00050713          	mv	a4,a0
    80200140:	00058793          	mv	a5,a1
    80200144:	fee43023          	sd	a4,-32(s0)
    80200148:	fef43423          	sd	a5,-24(s0)
    8020014c:	fe043783          	ld	a5,-32(s0)
    80200150:	00079a63          	bnez	a5,80200164 <sbi_get_spec_version+0x5c>
    80200154:	fe843783          	ld	a5,-24(s0)
    80200158:	00078663          	beqz	a5,80200164 <sbi_get_spec_version+0x5c>
    8020015c:	fe843783          	ld	a5,-24(s0)
    80200160:	0080006f          	j	80200168 <sbi_get_spec_version+0x60>
    80200164:	fff00793          	li	a5,-1
    80200168:	00078513          	mv	a0,a5
    8020016c:	01813083          	ld	ra,24(sp)
    80200170:	01013403          	ld	s0,16(sp)
    80200174:	02010113          	addi	sp,sp,32
    80200178:	00008067          	ret

000000008020017c <sbi_get_impl_id>:
    8020017c:	fe010113          	addi	sp,sp,-32
    80200180:	00113c23          	sd	ra,24(sp)
    80200184:	00813823          	sd	s0,16(sp)
    80200188:	02010413          	addi	s0,sp,32
    8020018c:	00000893          	li	a7,0
    80200190:	00000813          	li	a6,0
    80200194:	00000793          	li	a5,0
    80200198:	00000713          	li	a4,0
    8020019c:	00000693          	li	a3,0
    802001a0:	00000613          	li	a2,0
    802001a4:	00100593          	li	a1,1
    802001a8:	01000513          	li	a0,16
    802001ac:	e6dff0ef          	jal	80200018 <sbi_ecall>
    802001b0:	00050713          	mv	a4,a0
    802001b4:	00058793          	mv	a5,a1
    802001b8:	fee43023          	sd	a4,-32(s0)
    802001bc:	fef43423          	sd	a5,-24(s0)
    802001c0:	fe043783          	ld	a5,-32(s0)
    802001c4:	00079c63          	bnez	a5,802001dc <sbi_get_impl_id+0x60>
    802001c8:	fe843783          	ld	a5,-24(s0)
    802001cc:	00078863          	beqz	a5,802001dc <sbi_get_impl_id+0x60>
    802001d0:	fe843783          	ld	a5,-24(s0)
    802001d4:	0007879b          	sext.w	a5,a5
    802001d8:	0080006f          	j	802001e0 <sbi_get_impl_id+0x64>
    802001dc:	fff00793          	li	a5,-1
    802001e0:	00078513          	mv	a0,a5
    802001e4:	01813083          	ld	ra,24(sp)
    802001e8:	01013403          	ld	s0,16(sp)
    802001ec:	02010113          	addi	sp,sp,32
    802001f0:	00008067          	ret

00000000802001f4 <sbi_get_impl_version>:
    802001f4:	fd010113          	addi	sp,sp,-48
    802001f8:	02113423          	sd	ra,40(sp)
    802001fc:	02813023          	sd	s0,32(sp)
    80200200:	03010413          	addi	s0,sp,48
    80200204:	fca43c23          	sd	a0,-40(s0)
    80200208:	00000893          	li	a7,0
    8020020c:	00000813          	li	a6,0
    80200210:	00000793          	li	a5,0
    80200214:	00000713          	li	a4,0
    80200218:	00000693          	li	a3,0
    8020021c:	00000613          	li	a2,0
    80200220:	00200593          	li	a1,2
    80200224:	01000513          	li	a0,16
    80200228:	df1ff0ef          	jal	80200018 <sbi_ecall>
    8020022c:	00050713          	mv	a4,a0
    80200230:	00058793          	mv	a5,a1
    80200234:	fee43023          	sd	a4,-32(s0)
    80200238:	fef43423          	sd	a5,-24(s0)
    8020023c:	fe043783          	ld	a5,-32(s0)
    80200240:	00078663          	beqz	a5,8020024c <sbi_get_impl_version+0x58>
    80200244:	fff00793          	li	a5,-1
    80200248:	01c0006f          	j	80200264 <sbi_get_impl_version+0x70>
    8020024c:	fd843783          	ld	a5,-40(s0)
    80200250:	00078863          	beqz	a5,80200260 <sbi_get_impl_version+0x6c>
    80200254:	fe843703          	ld	a4,-24(s0)
    80200258:	fd843783          	ld	a5,-40(s0)
    8020025c:	00e7b023          	sd	a4,0(a5)
    80200260:	00000793          	li	a5,0
    80200264:	00078513          	mv	a0,a5
    80200268:	02813083          	ld	ra,40(sp)
    8020026c:	02013403          	ld	s0,32(sp)
    80200270:	03010113          	addi	sp,sp,48
    80200274:	00008067          	ret

0000000080200278 <sbi_probe_extension>:
    80200278:	fd010113          	addi	sp,sp,-48
    8020027c:	02113423          	sd	ra,40(sp)
    80200280:	02813023          	sd	s0,32(sp)
    80200284:	03010413          	addi	s0,sp,48
    80200288:	00050793          	mv	a5,a0
    8020028c:	fcf42e23          	sw	a5,-36(s0)
    80200290:	fdc42603          	lw	a2,-36(s0)
    80200294:	00000893          	li	a7,0
    80200298:	00000813          	li	a6,0
    8020029c:	00000793          	li	a5,0
    802002a0:	00000713          	li	a4,0
    802002a4:	00000693          	li	a3,0
    802002a8:	00300593          	li	a1,3
    802002ac:	01000513          	li	a0,16
    802002b0:	d69ff0ef          	jal	80200018 <sbi_ecall>
    802002b4:	00050713          	mv	a4,a0
    802002b8:	00058793          	mv	a5,a1
    802002bc:	fee43023          	sd	a4,-32(s0)
    802002c0:	fef43423          	sd	a5,-24(s0)
    802002c4:	fe043783          	ld	a5,-32(s0)
    802002c8:	00079c63          	bnez	a5,802002e0 <sbi_probe_extension+0x68>
    802002cc:	fe843783          	ld	a5,-24(s0)
    802002d0:	00078863          	beqz	a5,802002e0 <sbi_probe_extension+0x68>
    802002d4:	fe843783          	ld	a5,-24(s0)
    802002d8:	0007879b          	sext.w	a5,a5
    802002dc:	0080006f          	j	802002e4 <sbi_probe_extension+0x6c>
    802002e0:	fff00793          	li	a5,-1
    802002e4:	00078513          	mv	a0,a5
    802002e8:	02813083          	ld	ra,40(sp)
    802002ec:	02013403          	ld	s0,32(sp)
    802002f0:	03010113          	addi	sp,sp,48
    802002f4:	00008067          	ret

00000000802002f8 <sbi_get_mvendorid>:
    802002f8:	fd010113          	addi	sp,sp,-48
    802002fc:	02113423          	sd	ra,40(sp)
    80200300:	02813023          	sd	s0,32(sp)
    80200304:	03010413          	addi	s0,sp,48
    80200308:	fca43c23          	sd	a0,-40(s0)
    8020030c:	00000893          	li	a7,0
    80200310:	00000813          	li	a6,0
    80200314:	00000793          	li	a5,0
    80200318:	00000713          	li	a4,0
    8020031c:	00000693          	li	a3,0
    80200320:	00000613          	li	a2,0
    80200324:	00400593          	li	a1,4
    80200328:	01000513          	li	a0,16
    8020032c:	cedff0ef          	jal	80200018 <sbi_ecall>
    80200330:	00050713          	mv	a4,a0
    80200334:	00058793          	mv	a5,a1
    80200338:	fee43023          	sd	a4,-32(s0)
    8020033c:	fef43423          	sd	a5,-24(s0)
    80200340:	fe043783          	ld	a5,-32(s0)
    80200344:	00078663          	beqz	a5,80200350 <sbi_get_mvendorid+0x58>
    80200348:	fff00793          	li	a5,-1
    8020034c:	01c0006f          	j	80200368 <sbi_get_mvendorid+0x70>
    80200350:	fd843783          	ld	a5,-40(s0)
    80200354:	00078863          	beqz	a5,80200364 <sbi_get_mvendorid+0x6c>
    80200358:	fe843703          	ld	a4,-24(s0)
    8020035c:	fd843783          	ld	a5,-40(s0)
    80200360:	00e7b023          	sd	a4,0(a5)
    80200364:	00000793          	li	a5,0
    80200368:	00078513          	mv	a0,a5
    8020036c:	02813083          	ld	ra,40(sp)
    80200370:	02013403          	ld	s0,32(sp)
    80200374:	03010113          	addi	sp,sp,48
    80200378:	00008067          	ret

000000008020037c <sbi_get_marchid>:
    8020037c:	fd010113          	addi	sp,sp,-48
    80200380:	02113423          	sd	ra,40(sp)
    80200384:	02813023          	sd	s0,32(sp)
    80200388:	03010413          	addi	s0,sp,48
    8020038c:	fca43c23          	sd	a0,-40(s0)
    80200390:	00000893          	li	a7,0
    80200394:	00000813          	li	a6,0
    80200398:	00000793          	li	a5,0
    8020039c:	00000713          	li	a4,0
    802003a0:	00000693          	li	a3,0
    802003a4:	00000613          	li	a2,0
    802003a8:	00500593          	li	a1,5
    802003ac:	01000513          	li	a0,16
    802003b0:	c69ff0ef          	jal	80200018 <sbi_ecall>
    802003b4:	00050713          	mv	a4,a0
    802003b8:	00058793          	mv	a5,a1
    802003bc:	fee43023          	sd	a4,-32(s0)
    802003c0:	fef43423          	sd	a5,-24(s0)
    802003c4:	fe043783          	ld	a5,-32(s0)
    802003c8:	00078663          	beqz	a5,802003d4 <sbi_get_marchid+0x58>
    802003cc:	fff00793          	li	a5,-1
    802003d0:	01c0006f          	j	802003ec <sbi_get_marchid+0x70>
    802003d4:	fd843783          	ld	a5,-40(s0)
    802003d8:	00078863          	beqz	a5,802003e8 <sbi_get_marchid+0x6c>
    802003dc:	fe843703          	ld	a4,-24(s0)
    802003e0:	fd843783          	ld	a5,-40(s0)
    802003e4:	00e7b023          	sd	a4,0(a5)
    802003e8:	00000793          	li	a5,0
    802003ec:	00078513          	mv	a0,a5
    802003f0:	02813083          	ld	ra,40(sp)
    802003f4:	02013403          	ld	s0,32(sp)
    802003f8:	03010113          	addi	sp,sp,48
    802003fc:	00008067          	ret

0000000080200400 <sbi_get_mimpid>:
    80200400:	fd010113          	addi	sp,sp,-48
    80200404:	02113423          	sd	ra,40(sp)
    80200408:	02813023          	sd	s0,32(sp)
    8020040c:	03010413          	addi	s0,sp,48
    80200410:	fca43c23          	sd	a0,-40(s0)
    80200414:	00000893          	li	a7,0
    80200418:	00000813          	li	a6,0
    8020041c:	00000793          	li	a5,0
    80200420:	00000713          	li	a4,0
    80200424:	00000693          	li	a3,0
    80200428:	00000613          	li	a2,0
    8020042c:	00600593          	li	a1,6
    80200430:	01000513          	li	a0,16
    80200434:	be5ff0ef          	jal	80200018 <sbi_ecall>
    80200438:	00050713          	mv	a4,a0
    8020043c:	00058793          	mv	a5,a1
    80200440:	fee43023          	sd	a4,-32(s0)
    80200444:	fef43423          	sd	a5,-24(s0)
    80200448:	fe043783          	ld	a5,-32(s0)
    8020044c:	00078663          	beqz	a5,80200458 <sbi_get_mimpid+0x58>
    80200450:	fff00793          	li	a5,-1
    80200454:	01c0006f          	j	80200470 <sbi_get_mimpid+0x70>
    80200458:	fd843783          	ld	a5,-40(s0)
    8020045c:	00078863          	beqz	a5,8020046c <sbi_get_mimpid+0x6c>
    80200460:	fe843703          	ld	a4,-24(s0)
    80200464:	fd843783          	ld	a5,-40(s0)
    80200468:	00e7b023          	sd	a4,0(a5)
    8020046c:	00000793          	li	a5,0
    80200470:	00078513          	mv	a0,a5
    80200474:	02813083          	ld	ra,40(sp)
    80200478:	02013403          	ld	s0,32(sp)
    8020047c:	03010113          	addi	sp,sp,48
    80200480:	00008067          	ret

0000000080200484 <sbi_srst_reset>:
    80200484:	fe010113          	addi	sp,sp,-32
    80200488:	00113c23          	sd	ra,24(sp)
    8020048c:	00813823          	sd	s0,16(sp)
    80200490:	02010413          	addi	s0,sp,32
    80200494:	fea43423          	sd	a0,-24(s0)
    80200498:	feb43023          	sd	a1,-32(s0)
    8020049c:	00000893          	li	a7,0
    802004a0:	00000813          	li	a6,0
    802004a4:	00000793          	li	a5,0
    802004a8:	00000713          	li	a4,0
    802004ac:	fe043683          	ld	a3,-32(s0)
    802004b0:	fe843603          	ld	a2,-24(s0)
    802004b4:	00000593          	li	a1,0
    802004b8:	53525537          	lui	a0,0x53525
    802004bc:	35450513          	addi	a0,a0,852 # 53525354 <_start-0x2ccdacac>
    802004c0:	b59ff0ef          	jal	80200018 <sbi_ecall>
    802004c4:	00000013          	nop
    802004c8:	01813083          	ld	ra,24(sp)
    802004cc:	01013403          	ld	s0,16(sp)
    802004d0:	02010113          	addi	sp,sp,32
    802004d4:	00008067          	ret

00000000802004d8 <sbi_dbcn_write_byte>:
    802004d8:	fd010113          	addi	sp,sp,-48
    802004dc:	02113423          	sd	ra,40(sp)
    802004e0:	02813023          	sd	s0,32(sp)
    802004e4:	03010413          	addi	s0,sp,48
    802004e8:	00050793          	mv	a5,a0
    802004ec:	fcf40fa3          	sb	a5,-33(s0)
    802004f0:	fdf44603          	lbu	a2,-33(s0)
    802004f4:	00000893          	li	a7,0
    802004f8:	00000813          	li	a6,0
    802004fc:	00000793          	li	a5,0
    80200500:	00000713          	li	a4,0
    80200504:	00000693          	li	a3,0
    80200508:	00200593          	li	a1,2
    8020050c:	44424537          	lui	a0,0x44424
    80200510:	34e50513          	addi	a0,a0,846 # 4442434e <_start-0x3bddbcb2>
    80200514:	b05ff0ef          	jal	80200018 <sbi_ecall>
    80200518:	00050713          	mv	a4,a0
    8020051c:	00058793          	mv	a5,a1
    80200520:	fee43023          	sd	a4,-32(s0)
    80200524:	fef43423          	sd	a5,-24(s0)
    80200528:	fe043783          	ld	a5,-32(s0)
    8020052c:	0007879b          	sext.w	a5,a5
    80200530:	00078513          	mv	a0,a5
    80200534:	02813083          	ld	ra,40(sp)
    80200538:	02013403          	ld	s0,32(sp)
    8020053c:	03010113          	addi	sp,sp,48
    80200540:	00008067          	ret

0000000080200544 <sbi_console_putchar>:
    80200544:	fe010113          	addi	sp,sp,-32
    80200548:	00113c23          	sd	ra,24(sp)
    8020054c:	00813823          	sd	s0,16(sp)
    80200550:	02010413          	addi	s0,sp,32
    80200554:	00050793          	mv	a5,a0
    80200558:	fef42623          	sw	a5,-20(s0)
    8020055c:	fec42603          	lw	a2,-20(s0)
    80200560:	00000893          	li	a7,0
    80200564:	00000813          	li	a6,0
    80200568:	00000793          	li	a5,0
    8020056c:	00000713          	li	a4,0
    80200570:	00000693          	li	a3,0
    80200574:	00000593          	li	a1,0
    80200578:	00100513          	li	a0,1
    8020057c:	a9dff0ef          	jal	80200018 <sbi_ecall>
    80200580:	00000013          	nop
    80200584:	01813083          	ld	ra,24(sp)
    80200588:	01013403          	ld	s0,16(sp)
    8020058c:	02010113          	addi	sp,sp,32
    80200590:	00008067          	ret

0000000080200594 <sbi_console_getchar>:
    80200594:	fe010113          	addi	sp,sp,-32
    80200598:	00113c23          	sd	ra,24(sp)
    8020059c:	00813823          	sd	s0,16(sp)
    802005a0:	02010413          	addi	s0,sp,32
    802005a4:	00000893          	li	a7,0
    802005a8:	00000813          	li	a6,0
    802005ac:	00000793          	li	a5,0
    802005b0:	00000713          	li	a4,0
    802005b4:	00000693          	li	a3,0
    802005b8:	00000613          	li	a2,0
    802005bc:	00000593          	li	a1,0
    802005c0:	00200513          	li	a0,2
    802005c4:	a55ff0ef          	jal	80200018 <sbi_ecall>
    802005c8:	00050713          	mv	a4,a0
    802005cc:	00058793          	mv	a5,a1
    802005d0:	fee43023          	sd	a4,-32(s0)
    802005d4:	fef43423          	sd	a5,-24(s0)
    802005d8:	fe043783          	ld	a5,-32(s0)
    802005dc:	0007879b          	sext.w	a5,a5
    802005e0:	00078513          	mv	a0,a5
    802005e4:	01813083          	ld	ra,24(sp)
    802005e8:	01013403          	ld	s0,16(sp)
    802005ec:	02010113          	addi	sp,sp,32
    802005f0:	00008067          	ret

00000000802005f4 <sbi_clear_ipi>:
    802005f4:	ff010113          	addi	sp,sp,-16
    802005f8:	00113423          	sd	ra,8(sp)
    802005fc:	00813023          	sd	s0,0(sp)
    80200600:	01010413          	addi	s0,sp,16
    80200604:	00000893          	li	a7,0
    80200608:	00000813          	li	a6,0
    8020060c:	00000793          	li	a5,0
    80200610:	00000713          	li	a4,0
    80200614:	00000693          	li	a3,0
    80200618:	00000613          	li	a2,0
    8020061c:	00000593          	li	a1,0
    80200620:	00300513          	li	a0,3
    80200624:	9f5ff0ef          	jal	80200018 <sbi_ecall>
    80200628:	00000013          	nop
    8020062c:	00813083          	ld	ra,8(sp)
    80200630:	00013403          	ld	s0,0(sp)
    80200634:	01010113          	addi	sp,sp,16
    80200638:	00008067          	ret

000000008020063c <sbi_shutdown>:
    8020063c:	ff010113          	addi	sp,sp,-16
    80200640:	00113423          	sd	ra,8(sp)
    80200644:	00813023          	sd	s0,0(sp)
    80200648:	01010413          	addi	s0,sp,16
    8020064c:	00000893          	li	a7,0
    80200650:	00000813          	li	a6,0
    80200654:	00000793          	li	a5,0
    80200658:	00000713          	li	a4,0
    8020065c:	00000693          	li	a3,0
    80200660:	00000613          	li	a2,0
    80200664:	00000593          	li	a1,0
    80200668:	00800513          	li	a0,8
    8020066c:	9adff0ef          	jal	80200018 <sbi_ecall>
    80200670:	00000013          	nop
    80200674:	00813083          	ld	ra,8(sp)
    80200678:	00013403          	ld	s0,0(sp)
    8020067c:	01010113          	addi	sp,sp,16
    80200680:	00008067          	ret

0000000080200684 <sbi_send_ipi>:
    80200684:	fe010113          	addi	sp,sp,-32
    80200688:	00113c23          	sd	ra,24(sp)
    8020068c:	00813823          	sd	s0,16(sp)
    80200690:	02010413          	addi	s0,sp,32
    80200694:	fea43423          	sd	a0,-24(s0)
    80200698:	fe843603          	ld	a2,-24(s0)
    8020069c:	00000893          	li	a7,0
    802006a0:	00000813          	li	a6,0
    802006a4:	00000793          	li	a5,0
    802006a8:	00000713          	li	a4,0
    802006ac:	00000693          	li	a3,0
    802006b0:	00000593          	li	a1,0
    802006b4:	00400513          	li	a0,4
    802006b8:	961ff0ef          	jal	80200018 <sbi_ecall>
    802006bc:	00000013          	nop
    802006c0:	01813083          	ld	ra,24(sp)
    802006c4:	01013403          	ld	s0,16(sp)
    802006c8:	02010113          	addi	sp,sp,32
    802006cc:	00008067          	ret

00000000802006d0 <sbi_remote_fence_i>:
    802006d0:	fe010113          	addi	sp,sp,-32
    802006d4:	00113c23          	sd	ra,24(sp)
    802006d8:	00813823          	sd	s0,16(sp)
    802006dc:	02010413          	addi	s0,sp,32
    802006e0:	fea43423          	sd	a0,-24(s0)
    802006e4:	fe843603          	ld	a2,-24(s0)
    802006e8:	00000893          	li	a7,0
    802006ec:	00000813          	li	a6,0
    802006f0:	00000793          	li	a5,0
    802006f4:	00000713          	li	a4,0
    802006f8:	00000693          	li	a3,0
    802006fc:	00000593          	li	a1,0
    80200700:	00500513          	li	a0,5
    80200704:	915ff0ef          	jal	80200018 <sbi_ecall>
    80200708:	00000013          	nop
    8020070c:	01813083          	ld	ra,24(sp)
    80200710:	01013403          	ld	s0,16(sp)
    80200714:	02010113          	addi	sp,sp,32
    80200718:	00008067          	ret

000000008020071c <sbi_remote_sfence_vma>:
    8020071c:	fd010113          	addi	sp,sp,-48
    80200720:	02113423          	sd	ra,40(sp)
    80200724:	02813023          	sd	s0,32(sp)
    80200728:	03010413          	addi	s0,sp,48
    8020072c:	fea43423          	sd	a0,-24(s0)
    80200730:	feb43023          	sd	a1,-32(s0)
    80200734:	fcc43c23          	sd	a2,-40(s0)
    80200738:	fe843603          	ld	a2,-24(s0)
    8020073c:	00000893          	li	a7,0
    80200740:	00000813          	li	a6,0
    80200744:	00000793          	li	a5,0
    80200748:	fd843703          	ld	a4,-40(s0)
    8020074c:	fe043683          	ld	a3,-32(s0)
    80200750:	00000593          	li	a1,0
    80200754:	00600513          	li	a0,6
    80200758:	8c1ff0ef          	jal	80200018 <sbi_ecall>
    8020075c:	00000013          	nop
    80200760:	02813083          	ld	ra,40(sp)
    80200764:	02013403          	ld	s0,32(sp)
    80200768:	03010113          	addi	sp,sp,48
    8020076c:	00008067          	ret

0000000080200770 <sbi_remote_sfence_vma_asid>:
    80200770:	fd010113          	addi	sp,sp,-48
    80200774:	02113423          	sd	ra,40(sp)
    80200778:	02813023          	sd	s0,32(sp)
    8020077c:	03010413          	addi	s0,sp,48
    80200780:	fea43423          	sd	a0,-24(s0)
    80200784:	feb43023          	sd	a1,-32(s0)
    80200788:	fcc43c23          	sd	a2,-40(s0)
    8020078c:	fcd43823          	sd	a3,-48(s0)
    80200790:	fe843603          	ld	a2,-24(s0)
    80200794:	00000893          	li	a7,0
    80200798:	00000813          	li	a6,0
    8020079c:	fd043783          	ld	a5,-48(s0)
    802007a0:	fd843703          	ld	a4,-40(s0)
    802007a4:	fe043683          	ld	a3,-32(s0)
    802007a8:	00000593          	li	a1,0
    802007ac:	00700513          	li	a0,7
    802007b0:	869ff0ef          	jal	80200018 <sbi_ecall>
    802007b4:	00000013          	nop
    802007b8:	02813083          	ld	ra,40(sp)
    802007bc:	02013403          	ld	s0,32(sp)
    802007c0:	03010113          	addi	sp,sp,48
    802007c4:	00008067          	ret

00000000802007c8 <kernel_main>:
    802007c8:	fe010113          	addi	sp,sp,-32
    802007cc:	00113c23          	sd	ra,24(sp)
    802007d0:	00813823          	sd	s0,16(sp)
    802007d4:	02010413          	addi	s0,sp,32
    802007d8:	044000ef          	jal	8020081c <hal_uart_getchar>
    802007dc:	00050793          	mv	a5,a0
    802007e0:	fef407a3          	sb	a5,-17(s0)
    802007e4:	02d00513          	li	a0,45
    802007e8:	060000ef          	jal	80200848 <hal_uart_putchar>
    802007ec:	fef44783          	lbu	a5,-17(s0)
    802007f0:	00078513          	mv	a0,a5
    802007f4:	054000ef          	jal	80200848 <hal_uart_putchar>
    802007f8:	00000013          	nop
    802007fc:	fddff06f          	j	802007d8 <kernel_main+0x10>

0000000080200800 <hal_uart_init>:
    80200800:	ff010113          	addi	sp,sp,-16
    80200804:	00813423          	sd	s0,8(sp)
    80200808:	01010413          	addi	s0,sp,16
    8020080c:	00000013          	nop
    80200810:	00813403          	ld	s0,8(sp)
    80200814:	01010113          	addi	sp,sp,16
    80200818:	00008067          	ret

000000008020081c <hal_uart_getchar>:
    8020081c:	ff010113          	addi	sp,sp,-16
    80200820:	00113423          	sd	ra,8(sp)
    80200824:	00813023          	sd	s0,0(sp)
    80200828:	01010413          	addi	s0,sp,16
    8020082c:	d69ff0ef          	jal	80200594 <sbi_console_getchar>
    80200830:	00050793          	mv	a5,a0
    80200834:	00078513          	mv	a0,a5
    80200838:	00813083          	ld	ra,8(sp)
    8020083c:	00013403          	ld	s0,0(sp)
    80200840:	01010113          	addi	sp,sp,16
    80200844:	00008067          	ret

0000000080200848 <hal_uart_putchar>:
    80200848:	fe010113          	addi	sp,sp,-32
    8020084c:	00113c23          	sd	ra,24(sp)
    80200850:	00813823          	sd	s0,16(sp)
    80200854:	02010413          	addi	s0,sp,32
    80200858:	00050793          	mv	a5,a0
    8020085c:	fef407a3          	sb	a5,-17(s0)
    80200860:	fef44783          	lbu	a5,-17(s0)
    80200864:	0007879b          	sext.w	a5,a5
    80200868:	00078513          	mv	a0,a5
    8020086c:	cd9ff0ef          	jal	80200544 <sbi_console_putchar>
    80200870:	00000793          	li	a5,0
    80200874:	00078513          	mv	a0,a5
    80200878:	01813083          	ld	ra,24(sp)
    8020087c:	01013403          	ld	s0,16(sp)
    80200880:	02010113          	addi	sp,sp,32
    80200884:	00008067          	ret
